target datalayout = "e-m:e-p270:32:32-p271:32:32-p272:64:64-i64:64-i128:128-f80:128-n8:16:32:64-S128"
target triple = "x86_64-pc-linux-gnu"

%struct.FLAC__BitReader = type { ptr, i32, i32, i32, i32, i32, i32, i32, i32, i32, i32, i32, ptr, ptr }

; Function Attrs: nounwind sspstrong uwtable
define hidden i32 @FLAC__bitreader_skip_byte_block_aligned_no_crc(ptr noundef %0, i32 noundef %1) #0 {
  %3 = alloca i32, align 4
  %4 = alloca ptr, align 8
  %5 = alloca i32, align 4
  %6 = alloca i32, align 4
  %7 = alloca i32, align 4
  store ptr %0, ptr %4, align 8, !tbaa !3
  store i32 %1, ptr %5, align 4, !tbaa !32
  call void @llvm.lifetime.start.p0(i64 4, ptr %6) #10
  %8 = load ptr, ptr %4, align 8, !tbaa !3
  %9 = getelementptr inbounds nuw %struct.FLAC__BitReader, ptr %8, i32 0, i32 9
  %10 = load i32, ptr %9, align 8, !tbaa !19
  %11 = icmp ne i32 %10, 0
  br i1 %11, label %12, label %28

12:                                               ; preds = %2
  %13 = load ptr, ptr %4, align 8, !tbaa !3
  %14 = getelementptr inbounds nuw %struct.FLAC__BitReader, ptr %13, i32 0, i32 10
  %15 = load i32, ptr %14, align 4, !tbaa !20
  %16 = icmp ult i32 %15, -1
  br i1 %16, label %17, label %28

17:                                               ; preds = %12
  %18 = load ptr, ptr %4, align 8, !tbaa !3
  %19 = getelementptr inbounds nuw %struct.FLAC__BitReader, ptr %18, i32 0, i32 10
  %20 = load i32, ptr %19, align 4, !tbaa !20
  %21 = load i32, ptr %5, align 4, !tbaa !32
  %22 = mul i32 %21, 8
  %23 = icmp ult i32 %20, %22
  br i1 %23, label %24, label %27

24:                                               ; preds = %17
  %25 = load ptr, ptr %4, align 8, !tbaa !3
  %26 = getelementptr inbounds nuw %struct.FLAC__BitReader, ptr %25, i32 0, i32 10
  store i32 -1, ptr %26, align 4, !tbaa !20
  store i32 0, ptr %3, align 4
  store i32 1, ptr %7, align 4
  br label %100

27:                                               ; preds = %17
  br label %28

28:                                               ; preds = %27, %12, %2
  br label %29

29:                                               ; preds = %44, %28
  %30 = load i32, ptr %5, align 4, !tbaa !32
  %31 = icmp ne i32 %30, 0
  br i1 %31, label %32, label %37

32:                                               ; preds = %29
  %33 = load ptr, ptr %4, align 8, !tbaa !3
  %34 = getelementptr inbounds nuw %struct.FLAC__BitReader, ptr %33, i32 0, i32 5
  %35 = load i32, ptr %34, align 8, !tbaa !15
  %36 = icmp ne i32 %35, 0
  br label %37

37:                                               ; preds = %32, %29
  %38 = phi i1 [ false, %29 ], [ %36, %32 ]
  br i1 %38, label %39, label %47

39:                                               ; preds = %37
  %40 = load ptr, ptr %4, align 8, !tbaa !3
  %41 = call i32 @FLAC__bitreader_read_raw_uint32(ptr noundef %40, ptr noundef %6, i32 noundef 8)
  %42 = icmp ne i32 %41, 0
  br i1 %42, label %44, label %43

43:                                               ; preds = %39
  store i32 0, ptr %3, align 4
  store i32 1, ptr %7, align 4
  br label %100

44:                                               ; preds = %39
  %45 = load i32, ptr %5, align 4, !tbaa !32
  %46 = add i32 %45, -1
  store i32 %46, ptr %5, align 4, !tbaa !32
  br label %29, !llvm.loop !40

47:                                               ; preds = %37
  %48 = load i32, ptr %5, align 4, !tbaa !32
  %49 = icmp eq i32 0, %48
  br i1 %49, label %50, label %51

50:                                               ; preds = %47
  store i32 1, ptr %3, align 4
  store i32 1, ptr %7, align 4
  br label %100

51:                                               ; preds = %47
  br label %52

52:                                               ; preds = %86, %51
  %53 = load i32, ptr %5, align 4, !tbaa !32
  %54 = icmp uge i32 %53, 8
  br i1 %54, label %55, label %87

55:                                               ; preds = %52
  %56 = load ptr, ptr %4, align 8, !tbaa !3
  %57 = getelementptr inbounds nuw %struct.FLAC__BitReader, ptr %56, i32 0, i32 4
  %58 = load i32, ptr %57, align 4, !tbaa !16
  %59 = load ptr, ptr %4, align 8, !tbaa !3
  %60 = getelementptr inbounds nuw %struct.FLAC__BitReader, ptr %59, i32 0, i32 2
  %61 = load i32, ptr %60, align 4, !tbaa !14
  %62 = icmp ult i32 %58, %61
  br i1 %62, label %63, label %80

63:                                               ; preds = %55
  %64 = load ptr, ptr %4, align 8, !tbaa !3
  %65 = getelementptr inbounds nuw %struct.FLAC__BitReader, ptr %64, i32 0, i32 4
  %66 = load i32, ptr %65, align 4, !tbaa !16
  %67 = add i32 %66, 1
  store i32 %67, ptr %65, align 4, !tbaa !16
  %68 = load i32, ptr %5, align 4, !tbaa !32
  %69 = sub i32 %68, 8
  store i32 %69, ptr %5, align 4, !tbaa !32
  %70 = load ptr, ptr %4, align 8, !tbaa !3
  %71 = getelementptr inbounds nuw %struct.FLAC__BitReader, ptr %70, i32 0, i32 9
  %72 = load i32, ptr %71, align 8, !tbaa !19
  %73 = icmp ne i32 %72, 0
  br i1 %73, label %74, label %79

74:                                               ; preds = %63
  %75 = load ptr, ptr %4, align 8, !tbaa !3
  %76 = getelementptr inbounds nuw %struct.FLAC__BitReader, ptr %75, i32 0, i32 10
  %77 = load i32, ptr %76, align 4, !tbaa !20
  %78 = sub i32 %77, 64
  store i32 %78, ptr %76, align 4, !tbaa !20
  br label %79

79:                                               ; preds = %74, %63
  br label %86

80:                                               ; preds = %55
  %81 = load ptr, ptr %4, align 8, !tbaa !3
  %82 = call i32 @bitreader_read_from_client_(ptr noundef %81)
  %83 = icmp ne i32 %82, 0
  br i1 %83, label %85, label %84

84:                                               ; preds = %80
  store i32 0, ptr %3, align 4
  store i32 1, ptr %7, align 4
  br label %100

85:                                               ; preds = %80
  br label %86

86:                                               ; preds = %85, %79
  br label %52, !llvm.loop !41

87:                                               ; preds = %52
  br label %88

88:                                               ; preds = %96, %87
  %89 = load i32, ptr %5, align 4, !tbaa !32
  %90 = icmp ne i32 %89, 0
  br i1 %90, label %91, label %99

91:                                               ; preds = %88
  %92 = load ptr, ptr %4, align 8, !tbaa !3
  %93 = call i32 @FLAC__bitreader_read_raw_uint32(ptr noundef %92, ptr noundef %6, i32 noundef 8)
  %94 = icmp ne i32 %93, 0
  br i1 %94, label %96, label %95

95:                                               ; preds = %91
  store i32 0, ptr %3, align 4
  store i32 1, ptr %7, align 4
  br label %100

96:                                               ; preds = %91
  %97 = load i32, ptr %5, align 4, !tbaa !32
  %98 = add i32 %97, -1
  store i32 %98, ptr %5, align 4, !tbaa !32
  br label %88, !llvm.loop !42

99:                                               ; preds = %88
  store i32 1, ptr %3, align 4
  store i32 1, ptr %7, align 4
  br label %100

100:                                              ; preds = %99, %95, %84, %50, %43, %24
  call void @llvm.lifetime.end.p0(i64 4, ptr %6) #10
  %101 = load i32, ptr %3, align 4
  ret i32 %101
}