; Function Attrs: nounwind sspstrong uwtable
define hidden range(i32 0, 2) i32 @FLAC__bitreader_skip_byte_block_aligned_no_crc(ptr noundef captures(none) %0, i32 noundef %1) local_unnamed_addr #9 {
  %3 = alloca i32, align 4
  call void @llvm.lifetime.start.p0(i64 4, ptr nonnull %3) #21
  %4 = getelementptr inbounds nuw i8, ptr %0, i64 40
  %5 = load i32, ptr %4, align 8, !tbaa !10
  %.not = icmp eq i32 %5, 0
  br i1 %.not, label %12, label %6

6:                                                ; preds = %2
  %7 = getelementptr inbounds nuw i8, ptr %0, i64 44
  %8 = load i32, ptr %7, align 4, !tbaa !11
  %9 = shl i32 %1, 3
  %10 = icmp ult i32 %8, %9
  br i1 %10, label %11, label %12

11:                                               ; preds = %6
  store i32 -1, ptr %7, align 4, !tbaa !11
  br label %.loopexit

12:                                               ; preds = %6, %2
  %cond38 = icmp eq i32 %1, 0
  br i1 %cond38, label %.loopexit, label %.lr.ph

.lr.ph:                                           ; preds = %12
  %13 = getelementptr inbounds nuw i8, ptr %0, i64 24
  br label %14

14:                                               ; preds = %.lr.ph, %22
  %.039 = phi i32 [ %1, %.lr.ph ], [ %23, %22 ]
  %15 = load i32, ptr %13, align 8, !tbaa !17
  %.not26 = icmp eq i32 %15, 0
  br i1 %.not26, label %.critedge.preheader, label %20

.critedge.preheader:                              ; preds = %14
  %16 = icmp ugt i32 %.039, 7
  br i1 %16, label %.lr.ph43, label %.lr.ph47.preheader

.lr.ph43:                                         ; preds = %.critedge.preheader
  %17 = getelementptr inbounds nuw i8, ptr %0, i64 20
  %18 = getelementptr inbounds nuw i8, ptr %0, i64 12
  %19 = getelementptr inbounds nuw i8, ptr %0, i64 44
  br label %24

20:                                               ; preds = %14
  %21 = call i32 @FLAC__bitreader_read_raw_uint32(ptr noundef nonnull %0, ptr noundef nonnull %3, i32 noundef 8)
  %.not31 = icmp eq i32 %21, 0
  br i1 %.not31, label %.loopexit, label %22

22:                                               ; preds = %20
  %23 = add i32 %.039, -1
  %cond = icmp eq i32 %23, 0
  br i1 %cond, label %.loopexit, label %14, !llvm.loop !33

.preheader:                                       ; preds = %.critedge
  %.not2745 = icmp eq i32 %.2, 0
  br i1 %.not2745, label %.loopexit, label %.lr.ph47.preheader

.lr.ph47.preheader:                               ; preds = %.critedge.preheader, %.preheader
  %.346.ph = phi i32 [ %.039, %.critedge.preheader ], [ %.2, %.preheader ]
  br label %.lr.ph47

24:                                               ; preds = %.lr.ph43, %.critedge
  %.142 = phi i32 [ %.039, %.lr.ph43 ], [ %.2, %.critedge ]
  %25 = load i32, ptr %17, align 4, !tbaa !16
  %26 = load i32, ptr %18, align 4, !tbaa !28
  %27 = icmp ult i32 %25, %26
  br i1 %27, label %28, label %35

28:                                               ; preds = %24
  %29 = add nuw i32 %25, 1
  store i32 %29, ptr %17, align 4, !tbaa !16
  %30 = add i32 %.142, -8
  %31 = load i32, ptr %4, align 8, !tbaa !10
  %.not30 = icmp eq i32 %31, 0
  br i1 %.not30, label %.critedge, label %32

32:                                               ; preds = %28
  %33 = load i32, ptr %19, align 4, !tbaa !11
  %34 = add i32 %33, -64
  store i32 %34, ptr %19, align 4, !tbaa !11
  br label %.critedge

35:                                               ; preds = %24
  %36 = tail call fastcc i32 @bitreader_read_from_client_(ptr noundef nonnull %0)
  %.not29 = icmp eq i32 %36, 0
  br i1 %.not29, label %.loopexit, label %.critedge

.critedge:                                        ; preds = %35, %28, %32
  %.2 = phi i32 [ %30, %32 ], [ %30, %28 ], [ %.142, %35 ]
  %37 = icmp ugt i32 %.2, 7
  br i1 %37, label %24, label %.preheader, !llvm.loop !34

38:                                               ; preds = %.lr.ph47
  %39 = add nsw i32 %.346, -1
  %.not27 = icmp eq i32 %39, 0
  br i1 %.not27, label %.loopexit, label %.lr.ph47, !llvm.loop !35

.lr.ph47:                                         ; preds = %.lr.ph47.preheader, %38
  %.346 = phi i32 [ %39, %38 ], [ %.346.ph, %.lr.ph47.preheader ]
  %40 = call i32 @FLAC__bitreader_read_raw_uint32(ptr noundef %0, ptr noundef nonnull %3, i32 noundef 8)
  %.not28 = icmp eq i32 %40, 0
  br i1 %.not28, label %.loopexit, label %38

.loopexit:                                        ; preds = %20, %22, %35, %.lr.ph47, %38, %12, %.preheader, %11
  %.021 = phi i32 [ 0, %11 ], [ 1, %.preheader ], [ 1, %12 ], [ 0, %.lr.ph47 ], [ 1, %38 ], [ 0, %35 ], [ 0, %20 ], [ 1, %22 ]
  call void @llvm.lifetime.end.p0(i64 4, ptr nonnull %3) #21
  ret i32 %.021
}